target datalayout = "e-m:e-p270:32:32-p271:32:32-p272:64:64-i64:64-i128:128-f80:128-n8:16:32:64-S128"
target triple = "x86_64-pc-linux-gnu"

%"class.icu_77::RBBITableBuilder" = type <{ ptr, ptr, ptr, ptr, ptr, ptr, i32, [4 x i8] }>
%"class.icu_77::UVector" = type { %"class.icu_77::UObject", i32, i32, ptr, ptr, ptr }
%"class.icu_77::UObject" = type { ptr }
%"class.icu_77::UnicodeString" = type { %"class.icu_77::Replaceable", %"union.icu_77::UnicodeString::StackBufferOrFields" }
%"class.icu_77::Replaceable" = type { %"class.icu_77::UObject" }
%"union.icu_77::UnicodeString::StackBufferOrFields" = type { %struct.anon.0, [32 x i8] }
%struct.anon.0 = type { i16, i32, i32, ptr }
%"class.icu_77::RBBINode" = type { i32, ptr, ptr, ptr, ptr, i32, %"class.icu_77::UnicodeString", i32, i32, i8, i32, i8, i8, i8, ptr, ptr, ptr }

; Function Attrs: inlinehint mustprogress nounwind uwtable
define linkonce_odr noundef i32 @_ZNK6icu_777UVector4sizeEv(ptr noundef nonnull align 8 dereferenceable(40) %0) #1 comdat align 2 {
  %2 = alloca ptr, align 8
  store ptr %0, ptr %2, align 8, !tbaa !31
  %3 = load ptr, ptr %2, align 8
  %4 = getelementptr inbounds nuw %"class.icu_77::UVector", ptr %3, i32 0, i32 1
  %5 = load i32, ptr %4, align 8, !tbaa !32
  ret i32 %5
}

; Function Attrs: inlinehint mustprogress nounwind uwtable
define internal noundef signext i8 @_ZL9U_FAILURE10UErrorCode(i32 noundef %0) #1 {
  %2 = alloca i32, align 4
  store i32 %0, ptr %2, align 4, !tbaa !24
  %3 = load i32, ptr %2, align 4, !tbaa !24
  %4 = icmp sgt i32 %3, 0
  %5 = zext i1 %4 to i8
  ret i8 %5
}

; Function Attrs: mustprogress uwtable
define void @_ZN6icu_7716RBBITableBuilder8bofFixupEv(ptr noundef nonnull align 8 dereferenceable(52) %0) #0 align 2 {
  %2 = alloca ptr, align 8
  %3 = alloca ptr, align 8
  %4 = alloca ptr, align 8
  %5 = alloca ptr, align 8
  %6 = alloca i32, align 4
  store ptr %0, ptr %2, align 8, !tbaa !3
  %7 = load ptr, ptr %2, align 8
  %8 = getelementptr inbounds nuw %"class.icu_77::RBBITableBuilder", ptr %7, i32 0, i32 2
  %9 = load ptr, ptr %8, align 8, !tbaa !19
  %10 = load i32, ptr %9, align 4, !tbaa !24
  %11 = call noundef signext i8 @_ZL9U_FAILURE10UErrorCode(i32 noundef %10)
  %12 = icmp ne i8 %11, 0
  br i1 %12, label %13, label %14

13:                                               ; preds = %1
  br label %65

14:                                               ; preds = %1
  call void @llvm.lifetime.start.p0(i64 8, ptr %3) #11
  %15 = getelementptr inbounds nuw %"class.icu_77::RBBITableBuilder", ptr %7, i32 0, i32 1
  %16 = load ptr, ptr %15, align 8, !tbaa !36
  %17 = load ptr, ptr %16, align 8, !tbaa !37
  %18 = getelementptr inbounds nuw %"class.icu_77::RBBINode", ptr %17, i32 0, i32 2
  %19 = load ptr, ptr %18, align 8, !tbaa !48
  %20 = getelementptr inbounds nuw %"class.icu_77::RBBINode", ptr %19, i32 0, i32 2
  %21 = load ptr, ptr %20, align 8, !tbaa !48
  store ptr %21, ptr %3, align 8, !tbaa !37
  call void @llvm.lifetime.start.p0(i64 8, ptr %4) #11
  %22 = getelementptr inbounds nuw %"class.icu_77::RBBITableBuilder", ptr %7, i32 0, i32 1
  %23 = load ptr, ptr %22, align 8, !tbaa !36
  %24 = load ptr, ptr %23, align 8, !tbaa !37
  %25 = getelementptr inbounds nuw %"class.icu_77::RBBINode", ptr %24, i32 0, i32 2
  %26 = load ptr, ptr %25, align 8, !tbaa !48
  %27 = getelementptr inbounds nuw %"class.icu_77::RBBINode", ptr %26, i32 0, i32 3
  %28 = load ptr, ptr %27, align 8, !tbaa !53
  %29 = getelementptr inbounds nuw %"class.icu_77::RBBINode", ptr %28, i32 0, i32 14
  %30 = load ptr, ptr %29, align 8, !tbaa !60
  store ptr %30, ptr %4, align 8, !tbaa !31
  call void @llvm.lifetime.start.p0(i64 8, ptr %5) #11
  call void @llvm.lifetime.start.p0(i64 4, ptr %6) #11
  store i32 0, ptr %6, align 4, !tbaa !26
  br label %31

31:                                               ; preds = %61, %14
  %32 = load i32, ptr %6, align 4, !tbaa !26
  %33 = load ptr, ptr %4, align 8, !tbaa !31
  %34 = call noundef i32 @_ZNK6icu_777UVector4sizeEv(ptr noundef nonnull align 8 dereferenceable(40) %33)
  %35 = icmp slt i32 %32, %34
  br i1 %35, label %36, label %64

36:                                               ; preds = %31
  %37 = load ptr, ptr %4, align 8, !tbaa !31
  %38 = load i32, ptr %6, align 4, !tbaa !26
  %39 = call noundef ptr @_ZNK6icu_777UVector9elementAtEi(ptr noundef nonnull align 8 dereferenceable(40) %37, i32 noundef %38)
  store ptr %39, ptr %5, align 8, !tbaa !37
  %40 = load ptr, ptr %5, align 8, !tbaa !37
  %41 = getelementptr inbounds nuw %"class.icu_77::RBBINode", ptr %40, i32 0, i32 0
  %42 = load i32, ptr %41, align 8, !tbaa !58
  %43 = icmp ne i32 %42, 3
  br i1 %43, label %44, label %45

44:                                               ; preds = %36
  br label %61

45:                                               ; preds = %36
  %46 = load ptr, ptr %5, align 8, !tbaa !37
  %47 = getelementptr inbounds nuw %"class.icu_77::RBBINode", ptr %46, i32 0, i32 10
  %48 = load i32, ptr %47, align 4, !tbaa !55
  %49 = load ptr, ptr %3, align 8, !tbaa !37
  %50 = getelementptr inbounds nuw %"class.icu_77::RBBINode", ptr %49, i32 0, i32 10
  %51 = load i32, ptr %50, align 4, !tbaa !55
  %52 = icmp eq i32 %48, %51
  br i1 %52, label %53, label %60

53:                                               ; preds = %45
  %54 = load ptr, ptr %3, align 8, !tbaa !37
  %55 = getelementptr inbounds nuw %"class.icu_77::RBBINode", ptr %54, i32 0, i32 16
  %56 = load ptr, ptr %55, align 8, !tbaa !62
  %57 = load ptr, ptr %5, align 8, !tbaa !37
  %58 = getelementptr inbounds nuw %"class.icu_77::RBBINode", ptr %57, i32 0, i32 16
  %59 = load ptr, ptr %58, align 8, !tbaa !62
  call void @_ZN6icu_7716RBBITableBuilder6setAddEPNS_7UVectorES2_(ptr noundef nonnull align 8 dereferenceable(52) %7, ptr noundef %56, ptr noundef %59)
  br label %60

60:                                               ; preds = %53, %45
  br label %61

61:                                               ; preds = %60, %44
  %62 = load i32, ptr %6, align 4, !tbaa !26
  %63 = add nsw i32 %62, 1
  store i32 %63, ptr %6, align 4, !tbaa !26
  br label %31, !llvm.loop !69

64:                                               ; preds = %31
  call void @llvm.lifetime.end.p0(i64 4, ptr %6) #11
  call void @llvm.lifetime.end.p0(i64 8, ptr %5) #11
  call void @llvm.lifetime.end.p0(i64 8, ptr %4) #11
  call void @llvm.lifetime.end.p0(i64 8, ptr %3) #11
  br label %65

65:                                               ; preds = %64, %13
  ret void
}