; Function Attrs: mustprogress uwtable
define void @_ZN6icu_7716RBBITableBuilder8bofFixupEv(ptr noundef nonnull readonly align 8 captures(none) dereferenceable(52) %0) local_unnamed_addr #0 align 2 {
  %2 = getelementptr inbounds nuw i8, ptr %0, i64 16
  %3 = load ptr, ptr %2, align 8, !tbaa !15
  %4 = load i32, ptr %3, align 4, !tbaa !17
  %5 = icmp slt i32 %4, 1
  br i1 %5, label %6, label %.loopexit

6:                                                ; preds = %1
  %7 = getelementptr inbounds nuw i8, ptr %0, i64 8
  %8 = load ptr, ptr %7, align 8, !tbaa !30
  %9 = load ptr, ptr %8, align 8, !tbaa !31
  %10 = getelementptr inbounds nuw i8, ptr %9, i64 16
  %11 = load ptr, ptr %10, align 8, !tbaa !43
  %12 = getelementptr inbounds nuw i8, ptr %11, i64 24
  %13 = load ptr, ptr %12, align 8, !tbaa !48
  %14 = getelementptr inbounds nuw i8, ptr %13, i64 136
  %15 = load ptr, ptr %14, align 8, !tbaa !54
  %16 = getelementptr inbounds nuw i8, ptr %15, i64 8
  %17 = load i32, ptr %16, align 8, !tbaa !20
  %18 = icmp sgt i32 %17, 0
  br i1 %18, label %.lr.ph, label %.loopexit

.lr.ph:                                           ; preds = %6
  %19 = getelementptr inbounds nuw i8, ptr %11, i64 16
  %20 = load ptr, ptr %19, align 8, !tbaa !43
  %21 = getelementptr inbounds nuw i8, ptr %20, i64 124
  %22 = getelementptr inbounds nuw i8, ptr %20, i64 152
  br label %23

23:                                               ; preds = %.lr.ph, %35
  %.011 = phi i32 [ 0, %.lr.ph ], [ %36, %35 ]
  %24 = tail call noundef ptr @_ZNK6icu_777UVector9elementAtEi(ptr noundef nonnull align 8 dereferenceable(40) %15, i32 noundef %.011)
  %25 = load i32, ptr %24, align 8, !tbaa !52
  %.not10 = icmp eq i32 %25, 3
  br i1 %.not10, label %26, label %35

26:                                               ; preds = %23
  %27 = getelementptr inbounds nuw i8, ptr %24, i64 124
  %28 = load i32, ptr %27, align 4, !tbaa !50
  %29 = load i32, ptr %21, align 4, !tbaa !50
  %30 = icmp eq i32 %28, %29
  br i1 %30, label %31, label %35

31:                                               ; preds = %26
  %32 = load ptr, ptr %22, align 8, !tbaa !56
  %33 = getelementptr inbounds nuw i8, ptr %24, i64 152
  %34 = load ptr, ptr %33, align 8, !tbaa !56
  tail call void @_ZN6icu_7716RBBITableBuilder6setAddEPNS_7UVectorES2_(ptr noundef nonnull align 8 dereferenceable(52) %0, ptr noundef %32, ptr noundef %34)
  br label %35

35:                                               ; preds = %26, %31, %23
  %36 = add nuw nsw i32 %.011, 1
  %37 = load i32, ptr %16, align 8, !tbaa !20
  %38 = icmp slt i32 %36, %37
  br i1 %38, label %23, label %.loopexit, !llvm.loop !63

.loopexit:                                        ; preds = %35, %6, %1
  ret void
}